; Function Attrs: nounwind uwtable
define ptr @l_Lake_Env_toolchain(ptr noundef readonly captures(none) %0) local_unnamed_addr #0 {
lean_dec.exit:
  %1 = getelementptr inbounds nuw i8, ptr %0, i64 56
  %2 = load ptr, ptr %1, align 8, !tbaa !9
  %3 = getelementptr i8, ptr %2, i64 8
  %.val = load i64, ptr %3, align 8, !tbaa !12
  %.mask = and i64 %.val, 9223372036854775807
  %.not = icmp eq i64 %.mask, 1
  br i1 %.not, label %13, label %4

4:                                                ; preds = %lean_dec.exit
  %5 = ptrtoint ptr %2 to i64
  %6 = and i64 %5, 1
  %.not11 = icmp eq i64 %6, 0
  br i1 %.not11, label %7, label %lean_inc.exit

7:                                                ; preds = %4
  %.val.i = load i32, ptr %2, align 4, !tbaa !4
  %8 = icmp sgt i32 %.val.i, 0
  br i1 %8, label %9, label %11, !prof !11

9:                                                ; preds = %7
  %10 = add nuw i32 %.val.i, 1
  store i32 %10, ptr %2, align 4, !tbaa !4
  br label %lean_inc.exit

11:                                               ; preds = %7
  %.not.i10 = icmp eq i32 %.val.i, 0
  br i1 %.not.i10, label %lean_inc.exit, label %12

12:                                               ; preds = %11
  tail call void @lean_inc_ref_cold(ptr noundef nonnull %2) #6
  br label %lean_inc.exit

13:                                               ; preds = %lean_dec.exit
  %14 = load ptr, ptr @l_Lean_toolchain, align 8, !tbaa !9
  br label %lean_inc.exit

lean_inc.exit:                                    ; preds = %4, %9, %11, %12, %13
  %.0 = phi ptr [ %14, %13 ], [ %2, %12 ], [ %2, %11 ], [ %2, %9 ], [ %2, %4 ]
  ret ptr %.0
}